Certificate:
    Data:
        Version: 3 (0x2)
        Serial Number: 7 (0x7)
    Signature Algorithm: sha256WithRSAEncryption
        Issuer: C=IT, ST=Italy, L=Carrara, O=Unipi, OU=Comp. Eng., CN=Giulio's CA/emailAddress=giulio.micheloni@gmail.com
        Validity
            Not Before: May 19 21:28:33 2015 GMT
            Not After : May 18 21:28:33 2016 GMT
        Subject: C=IT, ST=Tuscany, L=Pisa, O=Unipi, OU=DII, CN=Files Server/emailAddress=admin@gmail.com
        Subject Public Key Info:
            Public Key Algorithm: rsaEncryption
                Public-Key: (2048 bit)
                Modulus:
                    00:cf:84:fb:7c:da:aa:70:3f:92:89:2a:d8:bc:fb:
                    56:12:94:cc:ff:6d:3a:38:1d:f4:32:56:0c:86:1b:
                    c3:19:2c:0a:2a:ca:c0:bd:f6:8e:53:57:6f:34:21:
                    a2:f8:be:32:34:55:6d:3a:e2:2c:e0:27:59:46:45:
                    c0:e3:5d:a7:5c:90:77:22:15:b8:0a:93:71:26:e5:
                    8e:db:41:c3:71:65:2e:e2:11:12:c3:c9:d0:a6:44:
                    75:29:14:90:5f:84:57:00:71:64:87:07:87:0b:cb:
                    17:1d:8f:eb:0b:3a:12:89:f1:78:1c:f8:e3:01:dc:
                    3b:65:45:75:d7:55:f4:c7:cd:44:51:99:06:e0:2b:
                    6b:2f:f2:be:46:8f:14:fd:27:fc:c7:e6:12:86:ed:
                    35:99:f8:a8:cb:e7:67:6d:6f:23:05:db:60:9c:a9:
                    43:65:a7:07:93:0a:73:b0:17:0e:4f:b3:5d:7b:c7:
                    1b:45:ae:7f:dc:2a:54:01:0f:aa:4e:ec:72:f1:70:
                    47:9e:8d:a2:44:5d:2d:2b:56:01:d9:05:79:8b:4c:
                    e2:61:a6:d3:21:38:5f:c2:be:fa:7e:36:13:3b:b1:
                    bc:0f:64:ba:c8:83:d5:24:4f:19:9f:4f:82:bd:e7:
                    08:07:47:26:bc:ce:d0:cd:c4:8b:92:3d:e6:69:d5:
                    4c:d5
                Exponent: 65537 (0x10001)
        X509v3 extensions:
            X509v3 Basic Constraints: 
                CA:FALSE
            Netscape Comment: 
                OpenSSL Generated Certificate
            X509v3 Subject Key Identifier: 
                53:DB:C5:8C:AB:89:16:C9:4B:16:3B:F8:9D:5A:14:AE:7D:69:93:CA
            X509v3 Authority Key Identifier: 
                keyid:8D:6F:90:5E:63:A1:12:95:9E:76:06:4E:30:D3:CB:19:95:DC:6E:4B

    Signature Algorithm: sha256WithRSAEncryption
         70:e5:21:49:5d:f8:13:cb:07:78:2b:73:47:48:eb:61:79:10:
         0e:c7:b2:33:e2:97:e6:a2:5b:f0:f7:67:8d:d7:e9:63:0a:d2:
         ff:6c:97:23:5d:9f:ae:19:c5:63:fe:60:76:21:9b:44:68:e1:
         cc:4e:75:2a:a8:c9:39:09:de:4c:c5:01:ef:a7:f4:e0:c2:a6:
         3f:4b:4f:eb:8b:a0:ae:74:64:9e:d7:71:b7:c4:47:a0:0f:83:
         89:2b:c8:09:59:e2:61:32:7b:b1:1a:24:3b:20:2d:e7:46:34:
         e5:68:b8:e2:27:2c:67:72:c0:95:47:e9:08:bf:ad:4e:45:ea:
         7c:e4
-----BEGIN CERTIFICATE-----
MIIDjzCCAvigAwIBAgIBBzANBgkqhkiG9w0BAQsFADCBlTELMAkGA1UEBhMCSVQx
DjAMBgNVBAgMBUl0YWx5MRAwDgYDVQQHDAdDYXJyYXJhMQ4wDAYDVQQKDAVVbmlw
aTETMBEGA1UECwwKQ29tcC4gRW5nLjEUMBIGA1UEAwwLR2l1bGlvJ3MgQ0ExKTAn
BgkqhkiG9w0BCQEWGmdpdWxpby5taWNoZWxvbmlAZ21haWwuY29tMB4XDTE1MDUx
OTIxMjgzM1oXDTE2MDUxODIxMjgzM1owgYMxCzAJBgNVBAYTAklUMRAwDgYDVQQI
DAdUdXNjYW55MQ0wCwYDVQQHDARQaXNhMQ4wDAYDVQQKDAVVbmlwaTEMMAoGA1UE
CwwDRElJMRUwEwYDVQQDDAxGaWxlcyBTZXJ2ZXIxHjAcBgkqhkiG9w0BCQEWD2Fk
bWluQGdtYWlsLmNvbTCCASIwDQYJKoZIhvcNAQEBBQADggEPADCCAQoCggEBAM+E
+3zaqnA/kokq2Lz7VhKUzP9tOjgd9DJWDIYbwxksCirKwL32jlNXbzQhovi+MjRV
bTriLOAnWUZFwONdp1yQdyIVuAqTcSbljttBw3FlLuIREsPJ0KZEdSkUkF+EVwBx
ZIcHhwvLFx2P6ws6EonxeBz44wHcO2VFdddV9MfNRFGZBuAray/yvkaPFP0n/Mfm
EobtNZn4qMvnZ21vIwXbYJypQ2WnB5MKc7AXDk+zXXvHG0Wuf9wqVAEPqk7scvFw
R56NokRdLStWAdkFeYtM4mGm0yE4X8K++n42EzuxvA9kusiD1SRPGZ9Pgr3nCAdH
JrzO0M3Ei5I95mnVTNUCAwEAAaN7MHkwCQYDVR0TBAIwADAsBglghkgBhvhCAQ0E
HxYdT3BlblNTTCBHZW5lcmF0ZWQgQ2VydGlmaWNhdGUwHQYDVR0OBBYEFFPbxYyr
iRbJSxY7+J1aFK59aZPKMB8GA1UdIwQYMBaAFI1vkF5joRKVnnYGTjDTyxmV3G5L
MA0GCSqGSIb3DQEBCwUAA4GBAHDlIUld+BPLB3grc0dI62F5EA7HsjPil+aiW/D3
Z43X6WMK0v9slyNdn64ZxWP+YHYhm0Ro4cxOdSqoyTkJ3kzFAe+n9ODCpj9LT+uL
oK50ZJ7XcbfER6APg4kryAlZ4mEye7EaJDsgLedGNOVouOInLGdywJVH6Qi/rU5F
6nzk
-----END CERTIFICATE-----
